(dp1
S'419c0994-8c98-11e0-abea-005056b664f8'
p2
S'dfba'
p3
sS'5fe34ef8-8c96-11e0-9e67-005056b664f8'
p4
S'dfba'
p5
sS'55f6ad68-8c8e-11e0-ba8b-005056b664f8'
p6
S'dfba'
p7
sS'2f5155e8-8c8c-11e0-946d-005056b664f8'
p8
S'dfba'
p9
sS'e1ab7cc7-b493-11e0-8656-005056b644d7'
p10
S'dfba'
p11
sS'2d329ab0-2667-11e4-b7e1-c42c0324af48'
p12
S'dfba'
p13
sS'cd3e7dd1-9787-11e0-a30e-005056b664f8'
p14
S'dfba'
p15
sS'008a9230-b483-11e0-992e-005056b644d7'
p16
S'dfba'
p17
sS'b587ee0c-b484-11e0-87d0-005056b664f8'
p18
S'dfba'
p19
sS'35013c3d-b47e-11e0-b1e2-005056b664f8'
p20
S'dfba'
p21
sS'6f46f67d-9d0c-11e0-a257-005056b644d7'
p22
S'dfba'
p23
sS'474349a8-9787-11e0-b52f-005056b664f8'
p24
S'dfba'
p25
sS'2cf29782-8c8d-11e0-a2ca-005056b664f8'
p26
S'dfba'
p27
sS'759650e0-1e8c-11e4-818d-c42c0324af48'
p28
S'dfba'
p29
sS'4c501a19-8c98-11e0-adb7-005056b664f8'
p30
g3
sS'c2010526-b484-11e0-b929-005056b664f8'
p31
S'dfba'
p32
sS'e1128dc5-7e4a-11e0-9186-005056b664f8'
p33
S'dfba'
p34
sS'c3c7c717-b47d-11e0-bcdc-005056b644d7'
p35
S'dfba'
p36
sS'2c3498fc-2667-11e4-b7e1-c42c0324af48'
p37
g13
sS'1fc66e2e-2667-11e4-aa50-c42c0324af48'
p38
S'dfba'
p39
sS'8dbf8b8a-b47e-11e0-8e3c-005056b664f8'
p40
S'dfba'
p41
sS'adf80fa2-1e8f-11e4-9a6d-c42c0324af48'
p42
S'dfba'
p43
sS'71005c21-b499-11e0-83d9-005056b664f8'
p44
S'dfba'
p45
sS'911fcdfa-9780-11e0-a5f5-005056b664f8'
p46
S'dfba'
p47
sS'444c3ef8-9787-11e0-b3a3-005056b664f8'
p48
g25
sS'acf05434-1e8f-11e4-9a6d-c42c0324af48'
p49
g43
sS'76ae7eba-8c8d-11e0-84c0-005056b664f8'
p50
S'dfba'
p51
sS'eb4a90b0-8c8d-11e0-b925-005056b664f8'
p52
S'dfba'
p53
sS'956f831c-b495-11e0-a437-005056b644d7'
p54
g11
sS'227e137d-8c8e-11e0-bffe-005056b664f8'
p55
S'dfba'
p56
sS'd52ee57d-9ce6-11e0-b7c0-005056b644d7'
p57
S'dfba'
p58
sS'7695ee74-1e8c-11e4-818d-c42c0324af48'
p59
g29
sS'890e58e8-b47f-11e0-aae8-005056b644d7'
p60
S'dfba'
p61
sS'47e7c821-8c90-11e0-be58-005056b664f8'
p62
S'dfba'
p63
sS'283a6b66-b499-11e0-bdf3-005056b664f8'
p64
S'dfba'
p65
sS'fbf3bfde-b47e-11e0-887d-005056b664f8'
p66
S'dfba'
p67
sS'b500490c-a417-11e0-b3c4-005056b664f8'
p68
S'dfba'
p69
sS'506cba5e-1e8f-11e4-b703-c42c0324af48'
p70
S'dfba'
p71
sS'f8d551a6-7e77-11e0-94cc-005056b664f8'
p72
S'dfba'
p73
sS'6f0561a6-b47e-11e0-8f45-005056b664f8'
p74
S'dfba'
p75
sS'cc012459-9787-11e0-9ca3-005056b664f8'
p76
g15
sS'89f9ef78-9cef-11e0-8dff-005056b644d7'
p77
g58
sS'6aabbdb8-8c96-11e0-bc76-005056b664f8'
p78
g5
sS'1babf957-7e77-11e0-8203-005056b644d7'
p79
S'dfba'
p80
sS'588765fd-b47f-11e0-ba36-005056b664f8'
p81
S'dfba'
p82
sS'5169a99e-1e8f-11e4-b703-c42c0324af48'
p83
g71
sS'65be32b3-b47e-11e0-9de7-005056b664f8'
p84
S'dfba'
p85
sS'88f3e0ee-9780-11e0-8595-005056b664f8'
p86
g47
s.